; Function Attrs: mustprogress nofree norecurse nosync nounwind willreturn memory(read, inaccessiblemem: none) uwtable
define hidden noundef float @_ZN2cv6detail8tracking15online_boosting31StrongClassifierDirectSelection4evalERKNS_3MatE(ptr noundef nonnull readonly align 8 captures(none) dereferenceable(192) %0, ptr noundef nonnull readonly align 8 captures(none) dereferenceable(96) %1) local_unnamed_addr #12 align 2 {
  %3 = getelementptr inbounds nuw i8, ptr %0, i64 8
  %4 = load i32, ptr %3, align 8, !tbaa !13
  %5 = icmp sgt i32 %4, 0
  br i1 %5, label %.lr.ph, label %._crit_edge

.lr.ph:                                           ; preds = %2
  %6 = getelementptr inbounds nuw i8, ptr %0, i64 24
  %7 = load ptr, ptr %6, align 8, !tbaa !64
  %8 = load i32, ptr %1, align 8, !tbaa !41
  %9 = and i32 %8, 16384
  %.not.i.i = icmp eq i32 %9, 0
  %10 = getelementptr inbounds nuw i8, ptr %1, i64 64
  %11 = load ptr, ptr %10, align 8
  %12 = getelementptr inbounds nuw i8, ptr %11, i64 4
  %13 = getelementptr inbounds nuw i8, ptr %1, i64 12
  %14 = load i32, ptr %13, align 4
  %15 = getelementptr inbounds nuw i8, ptr %1, i64 16
  %16 = load ptr, ptr %15, align 8
  %17 = getelementptr inbounds nuw i8, ptr %1, i64 72
  %18 = load ptr, ptr %17, align 8
  %19 = getelementptr inbounds nuw i8, ptr %0, i64 32
  %20 = load ptr, ptr %19, align 8, !tbaa !38
  br i1 %.not.i.i, label %.lr.ph.split.us, label %_ZN2cv6detail8tracking15online_boosting14BaseClassifier4evalERKNS_3MatE.exit.preheader

_ZN2cv6detail8tracking15online_boosting14BaseClassifier4evalERKNS_3MatE.exit.preheader: ; preds = %.lr.ph
  %wide.trip.count = zext nneg i32 %4 to i64
  br label %_ZN2cv6detail8tracking15online_boosting14BaseClassifier4evalERKNS_3MatE.exit

.lr.ph.split.us:                                  ; preds = %.lr.ph
  %21 = load i32, ptr %11, align 4, !tbaa !40
  %22 = icmp eq i32 %21, 1
  br i1 %22, label %_ZN2cv6detail8tracking15online_boosting14BaseClassifier4evalERKNS_3MatE.exit.us.us.preheader, label %.lr.ph.split.us.split

_ZN2cv6detail8tracking15online_boosting14BaseClassifier4evalERKNS_3MatE.exit.us.us.preheader: ; preds = %.lr.ph.split.us
  %wide.trip.count37 = zext nneg i32 %4 to i64
  br label %_ZN2cv6detail8tracking15online_boosting14BaseClassifier4evalERKNS_3MatE.exit.us.us

_ZN2cv6detail8tracking15online_boosting14BaseClassifier4evalERKNS_3MatE.exit.us.us: ; preds = %_ZN2cv6detail8tracking15online_boosting14BaseClassifier4evalERKNS_3MatE.exit.us.us.preheader, %_ZN2cv6detail8tracking15online_boosting14BaseClassifier4evalERKNS_3MatE.exit.us.us
  %indvars.iv34 = phi i64 [ 0, %_ZN2cv6detail8tracking15online_boosting14BaseClassifier4evalERKNS_3MatE.exit.us.us.preheader ], [ %indvars.iv.next35, %_ZN2cv6detail8tracking15online_boosting14BaseClassifier4evalERKNS_3MatE.exit.us.us ]
  %.078.us.us = phi float [ 0.000000e+00, %_ZN2cv6detail8tracking15online_boosting14BaseClassifier4evalERKNS_3MatE.exit.us.us.preheader ], [ %47, %_ZN2cv6detail8tracking15online_boosting14BaseClassifier4evalERKNS_3MatE.exit.us.us ]
  %23 = getelementptr inbounds nuw ptr, ptr %7, i64 %indvars.iv34
  %24 = load ptr, ptr %23, align 8, !tbaa !65
  %25 = getelementptr inbounds nuw i8, ptr %24, i64 8
  %26 = load ptr, ptr %25, align 8, !tbaa !67
  %27 = getelementptr inbounds nuw i8, ptr %24, i64 24
  %28 = load i32, ptr %27, align 8, !tbaa !80
  %29 = sext i32 %28 to i64
  %30 = getelementptr inbounds ptr, ptr %26, i64 %29
  %31 = load ptr, ptr %30, align 8, !tbaa !81
  %32 = getelementptr inbounds float, ptr %16, i64 %29
  %33 = load float, ptr %32, align 4, !tbaa !34
  %34 = getelementptr inbounds nuw i8, ptr %31, i64 16
  %35 = load ptr, ptr %34, align 8, !tbaa !83
  %36 = getelementptr inbounds nuw i8, ptr %35, i64 28
  %37 = load i32, ptr %36, align 4, !tbaa !86
  %38 = sitofp i32 %37 to float
  %39 = getelementptr inbounds nuw i8, ptr %35, i64 24
  %40 = load float, ptr %39, align 8, !tbaa !89
  %41 = fsub float %33, %40
  %42 = fmul float %41, %38
  %43 = fcmp ogt float %42, 0.000000e+00
  %44 = select i1 %43, float 1.000000e+00, float -1.000000e+00
  %45 = getelementptr inbounds nuw float, ptr %20, i64 %indvars.iv34
  %46 = load float, ptr %45, align 4, !tbaa !34
  %47 = tail call float @llvm.fmuladd.f32(float %44, float %46, float %.078.us.us)
  %indvars.iv.next35 = add nuw nsw i64 %indvars.iv34, 1
  %exitcond38.not = icmp eq i64 %indvars.iv.next35, %wide.trip.count37
  br i1 %exitcond38.not, label %._crit_edge, label %_ZN2cv6detail8tracking15online_boosting14BaseClassifier4evalERKNS_3MatE.exit.us.us, !llvm.loop !90

.lr.ph.split.us.split:                            ; preds = %.lr.ph.split.us
  %48 = load i32, ptr %12, align 4, !tbaa !40
  %49 = icmp eq i32 %48, 1
  %50 = load i64, ptr %18, align 8, !tbaa !78
  %wide.trip.count32 = zext nneg i32 %4 to i64
  br i1 %49, label %_ZN2cv6detail8tracking15online_boosting14BaseClassifier4evalERKNS_3MatE.exit.us.us13, label %_ZN2cv6detail8tracking15online_boosting14BaseClassifier4evalERKNS_3MatE.exit.us

_ZN2cv6detail8tracking15online_boosting14BaseClassifier4evalERKNS_3MatE.exit.us.us13: ; preds = %.lr.ph.split.us.split, %_ZN2cv6detail8tracking15online_boosting14BaseClassifier4evalERKNS_3MatE.exit.us.us13
  %indvars.iv29 = phi i64 [ %indvars.iv.next30, %_ZN2cv6detail8tracking15online_boosting14BaseClassifier4evalERKNS_3MatE.exit.us.us13 ], [ 0, %.lr.ph.split.us.split ]
  %.078.us.us12 = phi float [ %76, %_ZN2cv6detail8tracking15online_boosting14BaseClassifier4evalERKNS_3MatE.exit.us.us13 ], [ 0.000000e+00, %.lr.ph.split.us.split ]
  %51 = getelementptr inbounds nuw ptr, ptr %7, i64 %indvars.iv29
  %52 = load ptr, ptr %51, align 8, !tbaa !65
  %53 = getelementptr inbounds nuw i8, ptr %52, i64 8
  %54 = load ptr, ptr %53, align 8, !tbaa !67
  %55 = getelementptr inbounds nuw i8, ptr %52, i64 24
  %56 = load i32, ptr %55, align 8, !tbaa !80
  %57 = sext i32 %56 to i64
  %58 = getelementptr inbounds ptr, ptr %54, i64 %57
  %59 = load ptr, ptr %58, align 8, !tbaa !81
  %60 = mul i64 %50, %57
  %61 = getelementptr inbounds nuw i8, ptr %16, i64 %60
  %62 = load float, ptr %61, align 4, !tbaa !34
  %63 = getelementptr inbounds nuw i8, ptr %59, i64 16
  %64 = load ptr, ptr %63, align 8, !tbaa !83
  %65 = getelementptr inbounds nuw i8, ptr %64, i64 28
  %66 = load i32, ptr %65, align 4, !tbaa !86
  %67 = sitofp i32 %66 to float
  %68 = getelementptr inbounds nuw i8, ptr %64, i64 24
  %69 = load float, ptr %68, align 8, !tbaa !89
  %70 = fsub float %62, %69
  %71 = fmul float %70, %67
  %72 = fcmp ogt float %71, 0.000000e+00
  %73 = select i1 %72, float 1.000000e+00, float -1.000000e+00
  %74 = getelementptr inbounds nuw float, ptr %20, i64 %indvars.iv29
  %75 = load float, ptr %74, align 4, !tbaa !34
  %76 = tail call float @llvm.fmuladd.f32(float %73, float %75, float %.078.us.us12)
  %indvars.iv.next30 = add nuw nsw i64 %indvars.iv29, 1
  %exitcond33.not = icmp eq i64 %indvars.iv.next30, %wide.trip.count32
  br i1 %exitcond33.not, label %._crit_edge, label %_ZN2cv6detail8tracking15online_boosting14BaseClassifier4evalERKNS_3MatE.exit.us.us13, !llvm.loop !90

_ZN2cv6detail8tracking15online_boosting14BaseClassifier4evalERKNS_3MatE.exit.us: ; preds = %.lr.ph.split.us.split, %_ZN2cv6detail8tracking15online_boosting14BaseClassifier4evalERKNS_3MatE.exit.us
  %indvars.iv24 = phi i64 [ %indvars.iv.next25, %_ZN2cv6detail8tracking15online_boosting14BaseClassifier4evalERKNS_3MatE.exit.us ], [ 0, %.lr.ph.split.us.split ]
  %.078.us = phi float [ %107, %_ZN2cv6detail8tracking15online_boosting14BaseClassifier4evalERKNS_3MatE.exit.us ], [ 0.000000e+00, %.lr.ph.split.us.split ]
  %77 = getelementptr inbounds nuw ptr, ptr %7, i64 %indvars.iv24
  %78 = load ptr, ptr %77, align 8, !tbaa !65
  %79 = getelementptr inbounds nuw i8, ptr %78, i64 8
  %80 = load ptr, ptr %79, align 8, !tbaa !67
  %81 = getelementptr inbounds nuw i8, ptr %78, i64 24
  %82 = load i32, ptr %81, align 8, !tbaa !80
  %83 = sext i32 %82 to i64
  %84 = getelementptr inbounds ptr, ptr %80, i64 %83
  %85 = load ptr, ptr %84, align 8, !tbaa !81
  %86 = sdiv i32 %82, %14
  %87 = mul nsw i32 %86, %14
  %.recomposed = srem i32 %82, %14
  %88 = sext i32 %86 to i64
  %89 = mul i64 %50, %88
  %90 = getelementptr inbounds nuw i8, ptr %16, i64 %89
  %91 = sext i32 %.recomposed to i64
  %92 = getelementptr inbounds float, ptr %90, i64 %91
  %93 = load float, ptr %92, align 4, !tbaa !34
  %94 = getelementptr inbounds nuw i8, ptr %85, i64 16
  %95 = load ptr, ptr %94, align 8, !tbaa !83
  %96 = getelementptr inbounds nuw i8, ptr %95, i64 28
  %97 = load i32, ptr %96, align 4, !tbaa !86
  %98 = sitofp i32 %97 to float
  %99 = getelementptr inbounds nuw i8, ptr %95, i64 24
  %100 = load float, ptr %99, align 8, !tbaa !89
  %101 = fsub float %93, %100
  %102 = fmul float %101, %98
  %103 = fcmp ogt float %102, 0.000000e+00
  %104 = select i1 %103, float 1.000000e+00, float -1.000000e+00
  %105 = getelementptr inbounds nuw float, ptr %20, i64 %indvars.iv24
  %106 = load float, ptr %105, align 4, !tbaa !34
  %107 = tail call float @llvm.fmuladd.f32(float %104, float %106, float %.078.us)
  %indvars.iv.next25 = add nuw nsw i64 %indvars.iv24, 1
  %exitcond28.not = icmp eq i64 %indvars.iv.next25, %wide.trip.count32
  br i1 %exitcond28.not, label %._crit_edge, label %_ZN2cv6detail8tracking15online_boosting14BaseClassifier4evalERKNS_3MatE.exit.us, !llvm.loop !90

_ZN2cv6detail8tracking15online_boosting14BaseClassifier4evalERKNS_3MatE.exit: ; preds = %_ZN2cv6detail8tracking15online_boosting14BaseClassifier4evalERKNS_3MatE.exit.preheader, %_ZN2cv6detail8tracking15online_boosting14BaseClassifier4evalERKNS_3MatE.exit
  %indvars.iv = phi i64 [ 0, %_ZN2cv6detail8tracking15online_boosting14BaseClassifier4evalERKNS_3MatE.exit.preheader ], [ %indvars.iv.next, %_ZN2cv6detail8tracking15online_boosting14BaseClassifier4evalERKNS_3MatE.exit ]
  %.078 = phi float [ 0.000000e+00, %_ZN2cv6detail8tracking15online_boosting14BaseClassifier4evalERKNS_3MatE.exit.preheader ], [ %132, %_ZN2cv6detail8tracking15online_boosting14BaseClassifier4evalERKNS_3MatE.exit ]
  %108 = getelementptr inbounds nuw ptr, ptr %7, i64 %indvars.iv
  %109 = load ptr, ptr %108, align 8, !tbaa !65
  %110 = getelementptr inbounds nuw i8, ptr %109, i64 8
  %111 = load ptr, ptr %110, align 8, !tbaa !67
  %112 = getelementptr inbounds nuw i8, ptr %109, i64 24
  %113 = load i32, ptr %112, align 8, !tbaa !80
  %114 = sext i32 %113 to i64
  %115 = getelementptr inbounds ptr, ptr %111, i64 %114
  %116 = load ptr, ptr %115, align 8, !tbaa !81
  %117 = getelementptr inbounds float, ptr %16, i64 %114
  %118 = load float, ptr %117, align 4, !tbaa !34
  %119 = getelementptr inbounds nuw i8, ptr %116, i64 16
  %120 = load ptr, ptr %119, align 8, !tbaa !83
  %121 = getelementptr inbounds nuw i8, ptr %120, i64 28
  %122 = load i32, ptr %121, align 4, !tbaa !86
  %123 = sitofp i32 %122 to float
  %124 = getelementptr inbounds nuw i8, ptr %120, i64 24
  %125 = load float, ptr %124, align 8, !tbaa !89
  %126 = fsub float %118, %125
  %127 = fmul float %126, %123
  %128 = fcmp ogt float %127, 0.000000e+00
  %129 = select i1 %128, float 1.000000e+00, float -1.000000e+00
  %130 = getelementptr inbounds nuw float, ptr %20, i64 %indvars.iv
  %131 = load float, ptr %130, align 4, !tbaa !34
  %132 = tail call float @llvm.fmuladd.f32(float %129, float %131, float %.078)
  %indvars.iv.next = add nuw nsw i64 %indvars.iv, 1
  %exitcond.not = icmp eq i64 %indvars.iv.next, %wide.trip.count
  br i1 %exitcond.not, label %._crit_edge, label %_ZN2cv6detail8tracking15online_boosting14BaseClassifier4evalERKNS_3MatE.exit, !llvm.loop !90

._crit_edge:                                      ; preds = %_ZN2cv6detail8tracking15online_boosting14BaseClassifier4evalERKNS_3MatE.exit, %_ZN2cv6detail8tracking15online_boosting14BaseClassifier4evalERKNS_3MatE.exit.us, %_ZN2cv6detail8tracking15online_boosting14BaseClassifier4evalERKNS_3MatE.exit.us.us13, %_ZN2cv6detail8tracking15online_boosting14BaseClassifier4evalERKNS_3MatE.exit.us.us, %2
  %.07.lcssa = phi float [ 0.000000e+00, %2 ], [ %47, %_ZN2cv6detail8tracking15online_boosting14BaseClassifier4evalERKNS_3MatE.exit.us.us ], [ %76, %_ZN2cv6detail8tracking15online_boosting14BaseClassifier4evalERKNS_3MatE.exit.us.us13 ], [ %107, %_ZN2cv6detail8tracking15online_boosting14BaseClassifier4evalERKNS_3MatE.exit.us ], [ %132, %_ZN2cv6detail8tracking15online_boosting14BaseClassifier4evalERKNS_3MatE.exit ]
  ret float %.07.lcssa
}